; ModuleID = 'bench/linux/original/div64.ll'
source_filename = "bench/linux/original/div64.ll"
target datalayout = "e-m:e-p270:32:32-p271:32:32-p272:64:64-i64:64-i128:128-f80:128-n8:16:32:64-S128"
target triple = "x86_64-unknown-linux-gnu"

module asm ".section \22.export_symbol\22,\22a\22 ; __export_symbol_iter_div_u64_rem: ; .asciz \22\22 ; .asciz \22\22 ; .balign 8 ; .quad iter_div_u64_rem ; .previous"

@__UNIQUE_ID___addressable_iter_div_u64_rem2 = internal global ptr @iter_div_u64_rem, section ".discard.addressable", align 8
@llvm.compiler.used = appending global [1 x ptr] [ptr @__UNIQUE_ID___addressable_iter_div_u64_rem2], section "llvm.metadata"

; Function Attrs: fn_ret_thunk_extern nounwind null_pointer_is_valid
define dso_local i32 @iter_div_u64_rem(i64 noundef %0, i32 noundef %1, ptr nocapture noundef writeonly %2) #0 align 16 {
  %4 = alloca i64, align 8
  call void @llvm.lifetime.start.p0(i64 8, ptr nonnull %4)
  store i64 %0, ptr %4, align 8
  %5 = zext i32 %1 to i64
  %6 = icmp ugt i64 %5, %0
  br i1 %6, label %.loopexit, label %.preheader

.preheader:                                       ; preds = %3, %.preheader
  %7 = phi i64 [ %10, %.preheader ], [ %0, %3 ]
  %8 = phi i32 [ %11, %.preheader ], [ 0, %3 ]
  call void asm "", "=*rm,0,~{dirflag},~{fpsr},~{flags}"(ptr nonnull elementtype(i64) %4, i64 %7) #2, !srcloc !5
  %9 = load i64, ptr %4, align 8
  %10 = sub i64 %9, %5
  store i64 %10, ptr %4, align 8
  %11 = add i32 %8, 1
  %12 = icmp ult i64 %10, %5
  br i1 %12, label %.loopexit, label %.preheader, !llvm.loop !6

.loopexit:                                        ; preds = %.preheader, %3
  %13 = phi i32 [ 0, %3 ], [ %11, %.preheader ]
  %14 = phi i64 [ %0, %3 ], [ %10, %.preheader ]
  store i64 %14, ptr %2, align 8
  call void @llvm.lifetime.end.p0(i64 8, ptr nonnull %4)
  ret i32 %13
}

; Function Attrs: mustprogress nocallback nofree nosync nounwind willreturn memory(argmem: readwrite)
declare void @llvm.lifetime.start.p0(i64 immarg, ptr nocapture) #1

; Function Attrs: mustprogress nocallback nofree nosync nounwind willreturn memory(argmem: readwrite)
declare void @llvm.lifetime.end.p0(i64 immarg, ptr nocapture) #1


!llvm.module.flags = !{!0, !1, !2, !3, !4}

!0 = !{i32 1, !"wchar_size", i32 2}
!1 = !{i32 8, !"cf-protection-branch", i32 1}
!2 = !{i32 4, !"function_return_thunk_extern", i32 1}
!3 = !{i32 4, !"indirect_branch_cs_prefix", i32 1}
!4 = !{i32 4, !"SkipRaxSetup", i32 1}
!5 = !{i64 452636}
!6 = distinct !{!6, !7, !8}
!7 = !{!"llvm.loop.mustprogress"}
!8 = !{!"llvm.loop.unroll.disable"}
